target datalayout = "e-m:e-p270:32:32-p271:32:32-p272:64:64-i64:64-i128:128-f80:128-n8:16:32:64-S128"
target triple = "x86_64-unknown-linux-gnu"

%"class.net::SourceAddressToken" = type { %"class.google::protobuf::MessageLite", %"struct.google::protobuf::internal::ArenaStringPtr", ptr, [1 x i32], i32, %"struct.google::protobuf::internal::ArenaStringPtr", i64, ptr }
%"class.google::protobuf::MessageLite" = type { ptr }
%"struct.google::protobuf::internal::ArenaStringPtr" = type { ptr }

@_ZN6google8protobuf8internal13empty_string_B5cxx11E = external global ptr, align 8

; Function Attrs: mustprogress nounwind uwtable
define linkonce_odr dso_local noundef nonnull align 8 dereferenceable(32) ptr @_ZNK6google8protobuf8internal14ArenaStringPtr10GetNoArenaEPKNSt7__cxx1112basic_stringIcSt11char_traitsIcESaIcEEE(ptr noundef nonnull align 8 dereferenceable(8) %this, ptr noundef %0) #0 comdat align 2 {
entry:
  %this.addr = alloca ptr, align 8
  %.addr = alloca ptr, align 8
  store ptr %this, ptr %this.addr, align 8
  store ptr %0, ptr %.addr, align 8
  %this1 = load ptr, ptr %this.addr, align 8
  %ptr_ = getelementptr inbounds %"struct.google::protobuf::internal::ArenaStringPtr", ptr %this1, i32 0, i32 0
  %1 = load ptr, ptr %ptr_, align 8
  ret ptr %1
}

; Function Attrs: mustprogress nounwind uwtable
define linkonce_odr dso_local noundef nonnull align 8 dereferenceable(32) ptr @_ZN6google8protobuf8internal27GetEmptyStringAlreadyInitedB5cxx11Ev() #0 comdat {
entry:
  %0 = load ptr, ptr @_ZN6google8protobuf8internal13empty_string_B5cxx11E, align 8
  ret ptr %0
}

; Function Attrs: mustprogress nounwind uwtable
define linkonce_odr dso_local noundef nonnull align 8 dereferenceable(32) ptr @_ZNK3net18SourceAddressToken14unknown_fieldsB5cxx11Ev(ptr noundef nonnull align 8 dereferenceable(56) %this) #0 comdat align 2 {
entry:
  %this.addr = alloca ptr, align 8
  store ptr %this, ptr %this.addr, align 8
  %this1 = load ptr, ptr %this.addr, align 8
  %_unknown_fields_ = getelementptr inbounds %"class.net::SourceAddressToken", ptr %this1, i32 0, i32 1
  %call = call noundef nonnull align 8 dereferenceable(32) ptr @_ZN6google8protobuf8internal27GetEmptyStringAlreadyInitedB5cxx11Ev()
  %call2 = call noundef nonnull align 8 dereferenceable(32) ptr @_ZNK6google8protobuf8internal14ArenaStringPtr10GetNoArenaEPKNSt7__cxx1112basic_stringIcSt11char_traitsIcESaIcEEE(ptr noundef nonnull align 8 dereferenceable(8) %_unknown_fields_, ptr noundef %call)
  ret ptr %call2
}

; Function Attrs: mustprogress nounwind uwtable
define linkonce_odr dso_local noundef zeroext i1 @_ZNK3net18SourceAddressToken29has_cached_network_parametersEv(ptr noundef nonnull align 8 dereferenceable(56) %this) #0 comdat align 2 {
entry:
  %this.addr = alloca ptr, align 8
  store ptr %this, ptr %this.addr, align 8
  %this1 = load ptr, ptr %this.addr, align 8
  %_has_bits_ = getelementptr inbounds %"class.net::SourceAddressToken", ptr %this1, i32 0, i32 3
  %arrayidx = getelementptr inbounds [1 x i32], ptr %_has_bits_, i64 0, i64 0
  %0 = load i32, ptr %arrayidx, align 8
  %and = and i32 %0, 4
  %cmp = icmp ne i32 %and, 0
  ret i1 %cmp
}

; Function Attrs: mustprogress nounwind uwtable
define linkonce_odr dso_local noundef i64 @_ZNK3net18SourceAddressToken9timestampEv(ptr noundef nonnull align 8 dereferenceable(56) %this) #0 comdat align 2 {
entry:
  %this.addr = alloca ptr, align 8
  store ptr %this, ptr %this.addr, align 8
  %this1 = load ptr, ptr %this.addr, align 8
  %timestamp_ = getelementptr inbounds %"class.net::SourceAddressToken", ptr %this1, i32 0, i32 6
  %0 = load i64, ptr %timestamp_, align 8
  ret i64 %0
}

; Function Attrs: mustprogress nounwind uwtable
define linkonce_odr dso_local noundef zeroext i1 @_ZNK3net18SourceAddressToken13has_timestampEv(ptr noundef nonnull align 8 dereferenceable(56) %this) #0 comdat align 2 {
entry:
  %this.addr = alloca ptr, align 8
  store ptr %this, ptr %this.addr, align 8
  %this1 = load ptr, ptr %this.addr, align 8
  %_has_bits_ = getelementptr inbounds %"class.net::SourceAddressToken", ptr %this1, i32 0, i32 3
  %arrayidx = getelementptr inbounds [1 x i32], ptr %_has_bits_, i64 0, i64 0
  %0 = load i32, ptr %arrayidx, align 8
  %and = and i32 %0, 2
  %cmp = icmp ne i32 %and, 0
  ret i1 %cmp
}

; Function Attrs: mustprogress uwtable
define linkonce_odr dso_local noundef nonnull align 8 dereferenceable(32) ptr @_ZNK3net18SourceAddressToken2ipB5cxx11Ev(ptr noundef nonnull align 8 dereferenceable(56) %this) #1 comdat align 2 {
entry:
  %this.addr = alloca ptr, align 8
  store ptr %this, ptr %this.addr, align 8
  %this1 = load ptr, ptr %this.addr, align 8
  %ip_ = getelementptr inbounds %"class.net::SourceAddressToken", ptr %this1, i32 0, i32 5
  %call = call noundef nonnull align 8 dereferenceable(32) ptr @_ZN6google8protobuf8internal27GetEmptyStringAlreadyInitedB5cxx11Ev()
  %call2 = call noundef nonnull align 8 dereferenceable(32) ptr @_ZNK6google8protobuf8internal14ArenaStringPtr10GetNoArenaEPKNSt7__cxx1112basic_stringIcSt11char_traitsIcESaIcEEE(ptr noundef nonnull align 8 dereferenceable(8) %ip_, ptr noundef %call)
  ret ptr %call2
}

; Function Attrs: mustprogress nounwind uwtable
define linkonce_odr dso_local noundef zeroext i1 @_ZNK3net18SourceAddressToken6has_ipEv(ptr noundef nonnull align 8 dereferenceable(56) %this) #0 comdat align 2 {
entry:
  %this.addr = alloca ptr, align 8
  store ptr %this, ptr %this.addr, align 8
  %this1 = load ptr, ptr %this.addr, align 8
  %_has_bits_ = getelementptr inbounds %"class.net::SourceAddressToken", ptr %this1, i32 0, i32 3
  %arrayidx = getelementptr inbounds [1 x i32], ptr %_has_bits_, i64 0, i64 0
  %0 = load i32, ptr %arrayidx, align 8
  %and = and i32 %0, 1
  %cmp = icmp ne i32 %and, 0
  ret i1 %cmp
}

; Function Attrs: mustprogress uwtable
define dso_local void @_ZNK3net18SourceAddressToken24SerializeWithCachedSizesEPN6google8protobuf2io17CodedOutputStreamE(ptr noundef nonnull align 8 dereferenceable(56) %this, ptr noundef %output) unnamed_addr #1 align 2 {
entry:
  %this.addr = alloca ptr, align 8
  %output.addr = alloca ptr, align 8
  store ptr %this, ptr %this.addr, align 8
  store ptr %output, ptr %output.addr, align 8
  %this1 = load ptr, ptr %this.addr, align 8
  %call = call noundef zeroext i1 @_ZNK3net18SourceAddressToken6has_ipEv(ptr noundef nonnull align 8 dereferenceable(56) %this1)
  br i1 %call, label %if.then, label %if.end

if.then:                                          ; preds = %entry
  %call2 = call noundef nonnull align 8 dereferenceable(32) ptr @_ZNK3net18SourceAddressToken2ipB5cxx11Ev(ptr noundef nonnull align 8 dereferenceable(56) %this1)
  %0 = load ptr, ptr %output.addr, align 8
  call void @_ZN6google8protobuf8internal14WireFormatLite22WriteBytesMaybeAliasedEiRKNSt7__cxx1112basic_stringIcSt11char_traitsIcESaIcEEEPNS0_2io17CodedOutputStreamE(i32 noundef 1, ptr noundef nonnull align 8 dereferenceable(32) %call2, ptr noundef %0)
  br label %if.end

if.end:                                           ; preds = %if.then, %entry
  %call3 = call noundef zeroext i1 @_ZNK3net18SourceAddressToken13has_timestampEv(ptr noundef nonnull align 8 dereferenceable(56) %this1)
  br i1 %call3, label %if.then4, label %if.end6

if.then4:                                         ; preds = %if.end
  %call5 = call noundef i64 @_ZNK3net18SourceAddressToken9timestampEv(ptr noundef nonnull align 8 dereferenceable(56) %this1)
  %1 = load ptr, ptr %output.addr, align 8
  call void @_ZN6google8protobuf8internal14WireFormatLite10WriteInt64EilPNS0_2io17CodedOutputStreamE(i32 noundef 2, i64 noundef %call5, ptr noundef %1)
  br label %if.end6

if.end6:                                          ; preds = %if.then4, %if.end
  %call7 = call noundef zeroext i1 @_ZNK3net18SourceAddressToken29has_cached_network_parametersEv(ptr noundef nonnull align 8 dereferenceable(56) %this1)
  br i1 %call7, label %if.then8, label %if.end9

if.then8:                                         ; preds = %if.end6
  %cached_network_parameters_ = getelementptr inbounds %"class.net::SourceAddressToken", ptr %this1, i32 0, i32 7
  %2 = load ptr, ptr %cached_network_parameters_, align 8
  %3 = load ptr, ptr %output.addr, align 8
  call void @_ZN6google8protobuf8internal14WireFormatLite12WriteMessageEiRKNS0_11MessageLiteEPNS0_2io17CodedOutputStreamE(i32 noundef 3, ptr noundef nonnull align 8 dereferenceable(8) %2, ptr noundef %3)
  br label %if.end9

if.end9:                                          ; preds = %if.then8, %if.end6
  %4 = load ptr, ptr %output.addr, align 8
  %call10 = call noundef nonnull align 8 dereferenceable(32) ptr @_ZNK3net18SourceAddressToken14unknown_fieldsB5cxx11Ev(ptr noundef nonnull align 8 dereferenceable(56) %this1)
  %call11 = call noundef ptr @_ZNKSt7__cxx1112basic_stringIcSt11char_traitsIcESaIcEE4dataEv(ptr noundef nonnull align 8 dereferenceable(32) %call10) #12
  %call12 = call noundef nonnull align 8 dereferenceable(32) ptr @_ZNK3net18SourceAddressToken14unknown_fieldsB5cxx11Ev(ptr noundef nonnull align 8 dereferenceable(56) %this1)
  %call13 = call noundef i64 @_ZNKSt7__cxx1112basic_stringIcSt11char_traitsIcESaIcEE4sizeEv(ptr noundef nonnull align 8 dereferenceable(32) %call12) #12
  %conv = trunc i64 %call13 to i32
  call void @_ZN6google8protobuf2io17CodedOutputStream8WriteRawEPKvi(ptr noundef nonnull align 8 dereferenceable(26) %4, ptr noundef %call11, i32 noundef %conv)
  ret void
}