; Function Attrs: mustprogress uwtable
define dso_local void @_ZNK3net18SourceAddressToken24SerializeWithCachedSizesEPN6google8protobuf2io17CodedOutputStreamE(ptr nocapture noundef nonnull readonly align 8 dereferenceable(56) %this, ptr noundef %output) unnamed_addr #1 align 2 {
entry:
  %_has_bits_.i = getelementptr inbounds i8, ptr %this, i64 24
  %0 = load i32, ptr %_has_bits_.i, align 8
  %and.i = and i32 %0, 1
  %cmp.i.not = icmp eq i32 %and.i, 0
  br i1 %cmp.i.not, label %if.end, label %if.then

if.then:                                          ; preds = %entry
  %ip_.i = getelementptr inbounds i8, ptr %this, i64 32
  %1 = load ptr, ptr %ip_.i, align 8
  tail call void @_ZN6google8protobuf8internal14WireFormatLite22WriteBytesMaybeAliasedEiRKNSt7__cxx1112basic_stringIcSt11char_traitsIcESaIcEEEPNS0_2io17CodedOutputStreamE(i32 noundef 1, ptr noundef nonnull align 8 dereferenceable(32) %1, ptr noundef %output)
  %.pre = load i32, ptr %_has_bits_.i, align 8
  br label %if.end

if.end:                                           ; preds = %if.then, %entry
  %2 = phi i32 [ %.pre, %if.then ], [ %0, %entry ]
  %and.i5 = and i32 %2, 2
  %cmp.i6.not = icmp eq i32 %and.i5, 0
  br i1 %cmp.i6.not, label %if.end6, label %if.then4

if.then4:                                         ; preds = %if.end
  %timestamp_.i = getelementptr inbounds i8, ptr %this, i64 40
  %3 = load i64, ptr %timestamp_.i, align 8
  tail call void @_ZN6google8protobuf8internal14WireFormatLite10WriteInt64EilPNS0_2io17CodedOutputStreamE(i32 noundef 2, i64 noundef %3, ptr noundef %output)
  %.pre11 = load i32, ptr %_has_bits_.i, align 8
  br label %if.end6

if.end6:                                          ; preds = %if.then4, %if.end
  %4 = phi i32 [ %.pre11, %if.then4 ], [ %2, %if.end ]
  %and.i8 = and i32 %4, 4
  %cmp.i9.not = icmp eq i32 %and.i8, 0
  br i1 %cmp.i9.not, label %if.end9, label %if.then8

if.then8:                                         ; preds = %if.end6
  %cached_network_parameters_ = getelementptr inbounds i8, ptr %this, i64 48
  %5 = load ptr, ptr %cached_network_parameters_, align 8
  tail call void @_ZN6google8protobuf8internal14WireFormatLite12WriteMessageEiRKNS0_11MessageLiteEPNS0_2io17CodedOutputStreamE(i32 noundef 3, ptr noundef nonnull align 8 dereferenceable(8) %5, ptr noundef %output)
  br label %if.end9

if.end9:                                          ; preds = %if.then8, %if.end6
  %_unknown_fields_.i = getelementptr inbounds i8, ptr %this, i64 8
  %6 = load ptr, ptr %_unknown_fields_.i, align 8
  %call11 = tail call noundef ptr @_ZNKSt7__cxx1112basic_stringIcSt11char_traitsIcESaIcEE4dataEv(ptr noundef nonnull align 8 dereferenceable(32) %6) #14
  %7 = load ptr, ptr %_unknown_fields_.i, align 8
  %call13 = tail call noundef i64 @_ZNKSt7__cxx1112basic_stringIcSt11char_traitsIcESaIcEE4sizeEv(ptr noundef nonnull align 8 dereferenceable(32) %7) #14
  %conv = trunc i64 %call13 to i32
  tail call void @_ZN6google8protobuf2io17CodedOutputStream8WriteRawEPKvi(ptr noundef nonnull align 8 dereferenceable(26) %output, ptr noundef %call11, i32 noundef %conv)
  ret void
}